target datalayout = "e-m:e-p270:32:32-p271:32:32-p272:64:64-i64:64-i128:128-f80:128-n8:16:32:64-S128"
target triple = "x86_64-pc-linux-gnu"

; Function Attrs: nounwind uwtable
define hidden i32 @mbedtls_pem_write_buffer(ptr noundef %0, ptr noundef %1, ptr noundef %2, i64 noundef %3, ptr noundef %4, i64 noundef %5, ptr noundef %6) #0 {
  %8 = alloca i32, align 4
  %9 = alloca ptr, align 8
  %10 = alloca ptr, align 8
  %11 = alloca ptr, align 8
  %12 = alloca i64, align 8
  %13 = alloca ptr, align 8
  %14 = alloca i64, align 8
  %15 = alloca ptr, align 8
  %16 = alloca i32, align 4
  %17 = alloca ptr, align 8
  %18 = alloca ptr, align 8
  %19 = alloca ptr, align 8
  %20 = alloca i64, align 8
  %21 = alloca i64, align 8
  %22 = alloca i64, align 8
  %23 = alloca i32, align 4
  store ptr %0, ptr %9, align 8, !tbaa !8
  store ptr %1, ptr %10, align 8, !tbaa !8
  store ptr %2, ptr %11, align 8, !tbaa !8
  store i64 %3, ptr %12, align 8, !tbaa !10
  store ptr %4, ptr %13, align 8, !tbaa !8
  store i64 %5, ptr %14, align 8, !tbaa !10
  store ptr %6, ptr %15, align 8, !tbaa !12
  call void @llvm.lifetime.start.p0(i64 4, ptr %16) #9
  store i32 -110, ptr %16, align 4, !tbaa !14
  call void @llvm.lifetime.start.p0(i64 8, ptr %17) #9
  store ptr null, ptr %17, align 8, !tbaa !8
  call void @llvm.lifetime.start.p0(i64 8, ptr %18) #9
  call void @llvm.lifetime.start.p0(i64 8, ptr %19) #9
  %24 = load ptr, ptr %13, align 8, !tbaa !8
  store ptr %24, ptr %19, align 8, !tbaa !8
  call void @llvm.lifetime.start.p0(i64 8, ptr %20) #9
  store i64 0, ptr %20, align 8, !tbaa !10
  call void @llvm.lifetime.start.p0(i64 8, ptr %21) #9
  call void @llvm.lifetime.start.p0(i64 8, ptr %22) #9
  store i64 0, ptr %22, align 8, !tbaa !10
  %25 = load ptr, ptr %11, align 8, !tbaa !8
  %26 = load i64, ptr %12, align 8, !tbaa !10
  %27 = call i32 @mbedtls_base64_encode(ptr noundef null, i64 noundef 0, ptr noundef %21, ptr noundef %25, i64 noundef %26)
  %28 = load ptr, ptr %9, align 8, !tbaa !8
  %29 = call i64 @strlen(ptr noundef %28) #10
  %30 = load ptr, ptr %10, align 8, !tbaa !8
  %31 = call i64 @strlen(ptr noundef %30) #10
  %32 = add i64 %29, %31
  %33 = load i64, ptr %21, align 8, !tbaa !10
  %34 = icmp ugt i64 %33, 2
  br i1 %34, label %35, label %38

35:                                               ; preds = %7
  %36 = load i64, ptr %21, align 8, !tbaa !10
  %37 = sub i64 %36, 2
  br label %39

38:                                               ; preds = %7
  br label %39

39:                                               ; preds = %38, %35
  %40 = phi i64 [ %37, %35 ], [ 0, %38 ]
  %41 = udiv i64 %40, 64
  %42 = add i64 %32, %41
  %43 = add i64 %42, 1
  store i64 %43, ptr %22, align 8, !tbaa !10
  %44 = load i64, ptr %21, align 8, !tbaa !10
  %45 = load i64, ptr %22, align 8, !tbaa !10
  %46 = add i64 %44, %45
  %47 = load i64, ptr %14, align 8, !tbaa !10
  %48 = icmp ugt i64 %46, %47
  br i1 %48, label %49, label %54

49:                                               ; preds = %39
  %50 = load i64, ptr %21, align 8, !tbaa !10
  %51 = load i64, ptr %22, align 8, !tbaa !10
  %52 = add i64 %50, %51
  %53 = load ptr, ptr %15, align 8, !tbaa !12
  store i64 %52, ptr %53, align 8, !tbaa !10
  store i32 -42, ptr %8, align 4
  store i32 1, ptr %23, align 4
  br label %133

54:                                               ; preds = %39
  %55 = load i64, ptr %21, align 8, !tbaa !10
  %56 = icmp ne i64 %55, 0
  br i1 %56, label %57, label %62

57:                                               ; preds = %54
  %58 = load i64, ptr %21, align 8, !tbaa !10
  %59 = call noalias ptr @calloc(i64 noundef 1, i64 noundef %58) #11
  store ptr %59, ptr %17, align 8, !tbaa !8
  %60 = icmp eq ptr %59, null
  br i1 %60, label %61, label %62

61:                                               ; preds = %57
  store i32 -4480, ptr %8, align 4
  store i32 1, ptr %23, align 4
  br label %133

62:                                               ; preds = %57, %54
  %63 = load ptr, ptr %17, align 8, !tbaa !8
  %64 = load i64, ptr %21, align 8, !tbaa !10
  %65 = load ptr, ptr %11, align 8, !tbaa !8
  %66 = load i64, ptr %12, align 8, !tbaa !10
  %67 = call i32 @mbedtls_base64_encode(ptr noundef %63, i64 noundef %64, ptr noundef %21, ptr noundef %65, i64 noundef %66)
  store i32 %67, ptr %16, align 4, !tbaa !14
  %68 = icmp ne i32 %67, 0
  br i1 %68, label %69, label %72

69:                                               ; preds = %62
  %70 = load ptr, ptr %17, align 8, !tbaa !8
  call void @free(ptr noundef %70) #9
  %71 = load i32, ptr %16, align 4, !tbaa !14
  store i32 %71, ptr %8, align 4
  store i32 1, ptr %23, align 4
  br label %133

72:                                               ; preds = %62
  %73 = load ptr, ptr %19, align 8, !tbaa !8
  %74 = load ptr, ptr %9, align 8, !tbaa !8
  %75 = load ptr, ptr %9, align 8, !tbaa !8
  %76 = call i64 @strlen(ptr noundef %75) #10
  call void @llvm.memcpy.p0.p0.i64(ptr align 1 %73, ptr align 1 %74, i64 %76, i1 false)
  %77 = load ptr, ptr %9, align 8, !tbaa !8
  %78 = call i64 @strlen(ptr noundef %77) #10
  %79 = load ptr, ptr %19, align 8, !tbaa !8
  %80 = getelementptr inbounds nuw i8, ptr %79, i64 %78
  store ptr %80, ptr %19, align 8, !tbaa !8
  %81 = load ptr, ptr %17, align 8, !tbaa !8
  store ptr %81, ptr %18, align 8, !tbaa !8
  br label %82

82:                                               ; preds = %91, %72
  %83 = load i64, ptr %21, align 8, !tbaa !10
  %84 = icmp ne i64 %83, 0
  br i1 %84, label %85, label %107

85:                                               ; preds = %82
  %86 = load i64, ptr %21, align 8, !tbaa !10
  %87 = icmp ugt i64 %86, 64
  br i1 %87, label %88, label %89

88:                                               ; preds = %85
  br label %91

89:                                               ; preds = %85
  %90 = load i64, ptr %21, align 8, !tbaa !10
  br label %91

91:                                               ; preds = %89, %88
  %92 = phi i64 [ 64, %88 ], [ %90, %89 ]
  store i64 %92, ptr %20, align 8, !tbaa !10
  %93 = load ptr, ptr %19, align 8, !tbaa !8
  %94 = load ptr, ptr %18, align 8, !tbaa !8
  %95 = load i64, ptr %20, align 8, !tbaa !10
  call void @llvm.memcpy.p0.p0.i64(ptr align 1 %93, ptr align 1 %94, i64 %95, i1 false)
  %96 = load i64, ptr %20, align 8, !tbaa !10
  %97 = load i64, ptr %21, align 8, !tbaa !10
  %98 = sub i64 %97, %96
  store i64 %98, ptr %21, align 8, !tbaa !10
  %99 = load i64, ptr %20, align 8, !tbaa !10
  %100 = load ptr, ptr %19, align 8, !tbaa !8
  %101 = getelementptr inbounds nuw i8, ptr %100, i64 %99
  store ptr %101, ptr %19, align 8, !tbaa !8
  %102 = load i64, ptr %20, align 8, !tbaa !10
  %103 = load ptr, ptr %18, align 8, !tbaa !8
  %104 = getelementptr inbounds nuw i8, ptr %103, i64 %102
  store ptr %104, ptr %18, align 8, !tbaa !8
  %105 = load ptr, ptr %19, align 8, !tbaa !8
  %106 = getelementptr inbounds nuw i8, ptr %105, i32 1
  store ptr %106, ptr %19, align 8, !tbaa !8
  store i8 10, ptr %105, align 1, !tbaa !16
  br label %82, !llvm.loop !24

107:                                              ; preds = %82
  %108 = load ptr, ptr %19, align 8, !tbaa !8
  %109 = load ptr, ptr %10, align 8, !tbaa !8
  %110 = load ptr, ptr %10, align 8, !tbaa !8
  %111 = call i64 @strlen(ptr noundef %110) #10
  call void @llvm.memcpy.p0.p0.i64(ptr align 1 %108, ptr align 1 %109, i64 %111, i1 false)
  %112 = load ptr, ptr %10, align 8, !tbaa !8
  %113 = call i64 @strlen(ptr noundef %112) #10
  %114 = load ptr, ptr %19, align 8, !tbaa !8
  %115 = getelementptr inbounds nuw i8, ptr %114, i64 %113
  store ptr %115, ptr %19, align 8, !tbaa !8
  %116 = load ptr, ptr %19, align 8, !tbaa !8
  %117 = getelementptr inbounds nuw i8, ptr %116, i32 1
  store ptr %117, ptr %19, align 8, !tbaa !8
  store i8 0, ptr %116, align 1, !tbaa !16
  %118 = load ptr, ptr %19, align 8, !tbaa !8
  %119 = load ptr, ptr %13, align 8, !tbaa !8
  %120 = ptrtoint ptr %118 to i64
  %121 = ptrtoint ptr %119 to i64
  %122 = sub i64 %120, %121
  %123 = load ptr, ptr %15, align 8, !tbaa !12
  store i64 %122, ptr %123, align 8, !tbaa !10
  %124 = load ptr, ptr %13, align 8, !tbaa !8
  %125 = load ptr, ptr %15, align 8, !tbaa !12
  %126 = load i64, ptr %125, align 8, !tbaa !10
  %127 = getelementptr inbounds nuw i8, ptr %124, i64 %126
  %128 = load i64, ptr %14, align 8, !tbaa !10
  %129 = load ptr, ptr %15, align 8, !tbaa !12
  %130 = load i64, ptr %129, align 8, !tbaa !10
  %131 = sub i64 %128, %130
  call void @llvm.memset.p0.i64(ptr align 1 %127, i8 0, i64 %131, i1 false)
  %132 = load ptr, ptr %17, align 8, !tbaa !8
  call void @free(ptr noundef %132) #9
  store i32 0, ptr %8, align 4
  store i32 1, ptr %23, align 4
  br label %133

133:                                              ; preds = %107, %69, %61, %49
  call void @llvm.lifetime.end.p0(i64 8, ptr %22) #9
  call void @llvm.lifetime.end.p0(i64 8, ptr %21) #9
  call void @llvm.lifetime.end.p0(i64 8, ptr %20) #9
  call void @llvm.lifetime.end.p0(i64 8, ptr %19) #9
  call void @llvm.lifetime.end.p0(i64 8, ptr %18) #9
  call void @llvm.lifetime.end.p0(i64 8, ptr %17) #9
  call void @llvm.lifetime.end.p0(i64 4, ptr %16) #9
  %134 = load i32, ptr %8, align 4
  ret i32 %134
}