; Function Attrs: nounwind uwtable
define hidden i32 @mbedtls_pem_write_buffer(ptr noundef readonly captures(none) %0, ptr noundef readonly captures(none) %1, ptr noundef %2, i64 noundef %3, ptr noundef %4, i64 noundef %5, ptr noundef writeonly captures(none) %6) local_unnamed_addr #2 {
  %8 = alloca i64, align 8
  call void @llvm.lifetime.start.p0(i64 8, ptr nonnull %8) #12
  %9 = call i32 @mbedtls_base64_encode(ptr noundef null, i64 noundef 0, ptr noundef nonnull %8, ptr noundef %2, i64 noundef %3) #12
  %10 = call i64 @strlen(ptr noundef nonnull dereferenceable(1) %0) #13
  %11 = call i64 @strlen(ptr noundef nonnull dereferenceable(1) %1) #13
  %12 = load i64, ptr %8, align 8, !tbaa !6
  %13 = call i64 @llvm.usub.sat.i64(i64 %12, i64 2)
  %14 = lshr i64 %13, 6
  %15 = add i64 %10, 1
  %16 = add i64 %15, %11
  %17 = add i64 %16, %12
  %18 = add i64 %17, %14
  %19 = icmp ugt i64 %18, %5
  br i1 %19, label %20, label %21

20:                                               ; preds = %7
  store i64 %18, ptr %6, align 8, !tbaa !6
  br label %47

21:                                               ; preds = %7
  %.not = icmp eq i64 %12, 0
  br i1 %.not, label %25, label %22

22:                                               ; preds = %21
  %23 = call noalias ptr @calloc(i64 noundef 1, i64 noundef %12) #14
  %24 = icmp eq ptr %23, null
  br i1 %24, label %47, label %25

25:                                               ; preds = %22, %21
  %.044 = phi ptr [ %23, %22 ], [ null, %21 ]
  %26 = call i32 @mbedtls_base64_encode(ptr noundef %.044, i64 noundef %12, ptr noundef nonnull %8, ptr noundef %2, i64 noundef %3) #12
  %.not52 = icmp eq i32 %26, 0
  br i1 %.not52, label %28, label %27

27:                                               ; preds = %25
  call void @free(ptr noundef %.044) #12
  br label %47

28:                                               ; preds = %25
  %29 = call i64 @strlen(ptr noundef nonnull dereferenceable(1) %0) #13
  call void @llvm.memcpy.p0.p0.i64(ptr align 1 %4, ptr nonnull align 1 %0, i64 %29, i1 false)
  %30 = call i64 @strlen(ptr noundef nonnull dereferenceable(1) %0) #13
  %31 = getelementptr inbounds nuw i8, ptr %4, i64 %30
  %.pr = load i64, ptr %8, align 8, !tbaa !6
  %.not5354 = icmp eq i64 %.pr, 0
  br i1 %.not5354, label %._crit_edge, label %.lr.ph

.lr.ph:                                           ; preds = %28, %.lr.ph
  %.056 = phi ptr [ %37, %.lr.ph ], [ %31, %28 ]
  %.04355 = phi ptr [ %36, %.lr.ph ], [ %.044, %28 ]
  %32 = phi i64 [ %34, %.lr.ph ], [ %.pr, %28 ]
  %33 = call i64 @llvm.umin.i64(i64 %32, i64 64)
  call void @llvm.memcpy.p0.p0.i64(ptr noundef nonnull align 1 dereferenceable(1) %.056, ptr noundef nonnull align 1 dereferenceable(1) %.04355, i64 %33, i1 false)
  %34 = sub i64 %32, %33
  %35 = getelementptr inbounds nuw i8, ptr %.056, i64 %33
  %36 = getelementptr inbounds nuw i8, ptr %.04355, i64 %33
  %37 = getelementptr inbounds nuw i8, ptr %35, i64 1
  store i8 10, ptr %35, align 1, !tbaa !3
  %.not53 = icmp eq i64 %34, 0
  br i1 %.not53, label %._crit_edge, label %.lr.ph, !llvm.loop !17

._crit_edge:                                      ; preds = %.lr.ph, %28
  %.0.lcssa = phi ptr [ %31, %28 ], [ %37, %.lr.ph ]
  %38 = call i64 @strlen(ptr noundef nonnull dereferenceable(1) %1) #13
  call void @llvm.memcpy.p0.p0.i64(ptr align 1 %.0.lcssa, ptr nonnull align 1 %1, i64 %38, i1 false)
  %39 = call i64 @strlen(ptr noundef nonnull dereferenceable(1) %1) #13
  %40 = getelementptr inbounds nuw i8, ptr %.0.lcssa, i64 %39
  %41 = getelementptr inbounds nuw i8, ptr %40, i64 1
  store i8 0, ptr %40, align 1, !tbaa !3
  %42 = ptrtoint ptr %41 to i64
  %43 = ptrtoint ptr %4 to i64
  %44 = sub i64 %42, %43
  store i64 %44, ptr %6, align 8, !tbaa !6
  %45 = getelementptr inbounds nuw i8, ptr %4, i64 %44
  %46 = sub i64 %5, %44
  call void @llvm.memset.p0.i64(ptr align 1 %45, i8 0, i64 %46, i1 false)
  call void @free(ptr noundef %.044) #12
  br label %47

47:                                               ; preds = %22, %._crit_edge, %27, %20
  %.045 = phi i32 [ -42, %20 ], [ %26, %27 ], [ 0, %._crit_edge ], [ -4480, %22 ]
  call void @llvm.lifetime.end.p0(i64 8, ptr nonnull %8) #12
  ret i32 %.045
}